target datalayout = "e-m:e-p270:32:32-p271:32:32-p272:64:64-i64:64-i128:128-f80:128-n8:16:32:64-S128"
target triple = "x86_64-pc-linux-gnu"

%class.ReservedSpace = type <{ ptr, i64, i64, i64, i64, i8, [3 x i8], i32, i8, [7 x i8] }>
%class.PSOldGen = type { ptr, ptr, %class.ObjectStartArray, ptr, ptr, ptr, i64, i64 }
%class.ObjectStartArray = type { [8 x i8], %class.PSVirtualSpace, ptr }
%class.PSVirtualSpace = type <{ ptr, i64, ptr, ptr, ptr, ptr, i8, [7 x i8] }>

@.str = private unnamed_addr constant [47 x i8] c"Could not reserve enough space for object heap\00", align 1

; Function Attrs: mustprogress nounwind uwtable
define linkonce_odr hidden noundef i64 @_Z13pointer_deltaPVKvS0_m(ptr noundef %0, ptr noundef %1, i64 noundef %2) #1 comdat {
  %4 = alloca ptr, align 8
  %5 = alloca ptr, align 8
  %6 = alloca i64, align 8
  store ptr %0, ptr %4, align 8
  store ptr %1, ptr %5, align 8
  store i64 %2, ptr %6, align 8
  %7 = load ptr, ptr %4, align 8
  %8 = ptrtoint ptr %7 to i64
  %9 = load ptr, ptr %5, align 8
  %10 = ptrtoint ptr %9 to i64
  %11 = sub i64 %8, %10
  %12 = load i64, ptr %6, align 8
  %13 = udiv i64 %11, %12
  ret i64 %13
}

; Function Attrs: mustprogress nounwind uwtable
define linkonce_odr hidden noundef ptr @_ZNK14PSVirtualSpace17reserved_low_addrEv(ptr noundef nonnull align 8 dereferenceable(49) %0) #1 comdat align 2 {
  %2 = alloca ptr, align 8
  store ptr %0, ptr %2, align 8
  %3 = load ptr, ptr %2, align 8
  %4 = getelementptr inbounds %class.PSVirtualSpace, ptr %3, i32 0, i32 2
  %5 = load ptr, ptr %4, align 8
  ret ptr %5
}

; Function Attrs: mustprogress nounwind uwtable
define linkonce_odr hidden noundef ptr @_ZNK14PSVirtualSpace18reserved_high_addrEv(ptr noundef nonnull align 8 dereferenceable(49) %0) #1 comdat align 2 {
  %2 = alloca ptr, align 8
  store ptr %0, ptr %2, align 8
  %3 = load ptr, ptr %2, align 8
  %4 = getelementptr inbounds %class.PSVirtualSpace, ptr %3, i32 0, i32 3
  %5 = load ptr, ptr %4, align 8
  ret ptr %5
}

; Function Attrs: mustprogress nounwind uwtable
define linkonce_odr hidden noundef i64 @_ZNK14PSVirtualSpace13reserved_sizeEv(ptr noundef nonnull align 8 dereferenceable(49) %0) #1 comdat align 2 {
  %2 = alloca ptr, align 8
  store ptr %0, ptr %2, align 8
  %3 = load ptr, ptr %2, align 8
  %4 = call noundef ptr @_ZNK14PSVirtualSpace18reserved_high_addrEv(ptr noundef nonnull align 8 dereferenceable(49) %3)
  %5 = call noundef ptr @_ZNK14PSVirtualSpace17reserved_low_addrEv(ptr noundef nonnull align 8 dereferenceable(49) %3)
  %6 = call noundef i64 @_Z13pointer_deltaPVKvS0_m(ptr noundef %4, ptr noundef %5, i64 noundef 1)
  ret i64 %6
}

; Function Attrs: mustprogress nounwind uwtable
define linkonce_odr hidden noundef ptr @_ZNK8PSOldGen13virtual_spaceEv(ptr noundef nonnull align 8 dereferenceable(128) %0) #1 comdat align 2 {
  %2 = alloca ptr, align 8
  store ptr %0, ptr %2, align 8
  %3 = load ptr, ptr %2, align 8
  %4 = getelementptr inbounds %class.PSOldGen, ptr %3, i32 0, i32 1
  %5 = load ptr, ptr %4, align 8
  ret ptr %5
}

; Function Attrs: mustprogress nounwind uwtable
define linkonce_odr hidden noundef i64 @_ZNK8PSOldGen12max_gen_sizeEv(ptr noundef nonnull align 8 dereferenceable(128) %0) #1 comdat align 2 {
  %2 = alloca ptr, align 8
  store ptr %0, ptr %2, align 8
  %3 = load ptr, ptr %2, align 8
  %4 = getelementptr inbounds %class.PSOldGen, ptr %3, i32 0, i32 7
  %5 = load i64, ptr %4, align 8
  ret i64 %5
}

; Function Attrs: mustprogress nounwind uwtable
define linkonce_odr hidden noundef i64 @_ZNK8PSOldGen12min_gen_sizeEv(ptr noundef nonnull align 8 dereferenceable(128) %0) #1 comdat align 2 {
  %2 = alloca ptr, align 8
  store ptr %0, ptr %2, align 8
  %3 = load ptr, ptr %2, align 8
  %4 = getelementptr inbounds %class.PSOldGen, ptr %3, i32 0, i32 6
  %5 = load i64, ptr %4, align 8
  ret i64 %5
}

; Function Attrs: mustprogress nounwind uwtable
define hidden void @_ZN8PSOldGen31initialize_performance_countersEPKci(ptr noundef nonnull align 8 dereferenceable(128) %0, ptr noundef %1, i32 noundef %2) #1 align 2 {
  %4 = alloca i64, align 8
  %5 = alloca i8, align 1
  %6 = alloca i64, align 8
  %7 = alloca i8, align 1
  %8 = alloca i64, align 8
  %9 = alloca i64, align 8
  %10 = alloca ptr, align 8
  %11 = alloca ptr, align 8
  %12 = alloca i32, align 4
  store ptr %0, ptr %10, align 8
  store ptr %1, ptr %11, align 8
  store i32 %2, ptr %12, align 4
  %13 = load ptr, ptr %10, align 8
  store i64 40, ptr %8, align 8
  %14 = load i64, ptr %8, align 8
  store i64 %14, ptr %6, align 8
  store i8 5, ptr %7, align 1
  %15 = load i64, ptr %6, align 8
  %16 = load i8, ptr %7, align 1
  %17 = call noundef ptr @_Z12AllocateHeapm8MEMFLAGSN17AllocFailStrategy13AllocFailEnumE(i64 noundef %15, i8 noundef zeroext %16, i32 noundef 0) #7
  %18 = load ptr, ptr %11, align 8
  %19 = load i32, ptr %12, align 4
  %20 = call noundef i64 @_ZNK8PSOldGen12min_gen_sizeEv(ptr noundef nonnull align 8 dereferenceable(128) %13)
  %21 = call noundef i64 @_ZNK8PSOldGen12max_gen_sizeEv(ptr noundef nonnull align 8 dereferenceable(128) %13)
  %22 = call noundef ptr @_ZNK8PSOldGen13virtual_spaceEv(ptr noundef nonnull align 8 dereferenceable(128) %13)
  call void @_ZN20PSGenerationCountersC1EPKciimmP14PSVirtualSpace(ptr noundef nonnull align 8 dereferenceable(40) %17, ptr noundef %18, i32 noundef %19, i32 noundef 1, i64 noundef %20, i64 noundef %21, ptr noundef %22)
  %23 = getelementptr inbounds %class.PSOldGen, ptr %13, i32 0, i32 4
  store ptr %17, ptr %23, align 8
  store i64 40, ptr %9, align 8
  %24 = load i64, ptr %9, align 8
  store i64 %24, ptr %4, align 8
  store i8 5, ptr %5, align 1
  %25 = load i64, ptr %4, align 8
  %26 = load i8, ptr %5, align 1
  %27 = call noundef ptr @_Z12AllocateHeapm8MEMFLAGSN17AllocFailStrategy13AllocFailEnumE(i64 noundef %25, i8 noundef zeroext %26, i32 noundef 0) #7
  %28 = load ptr, ptr %11, align 8
  %29 = call noundef ptr @_ZNK8PSOldGen13virtual_spaceEv(ptr noundef nonnull align 8 dereferenceable(128) %13)
  %30 = call noundef i64 @_ZNK14PSVirtualSpace13reserved_sizeEv(ptr noundef nonnull align 8 dereferenceable(49) %29)
  %31 = getelementptr inbounds %class.PSOldGen, ptr %13, i32 0, i32 3
  %32 = load ptr, ptr %31, align 8
  %33 = getelementptr inbounds %class.PSOldGen, ptr %13, i32 0, i32 4
  %34 = load ptr, ptr %33, align 8
  call void @_ZN13SpaceCountersC1EPKcimP12MutableSpaceP18GenerationCounters(ptr noundef nonnull align 8 dereferenceable(40) %27, ptr noundef %28, i32 noundef 0, i64 noundef %30, ptr noundef %32, ptr noundef %34)
  %35 = getelementptr inbounds %class.PSOldGen, ptr %13, i32 0, i32 5
  store ptr %27, ptr %35, align 8
  ret void
}

; Function Attrs: mustprogress nounwind uwtable
define hidden void @_ZN8PSOldGen24initialize_virtual_spaceE13ReservedSpacemm(ptr noundef nonnull align 8 dereferenceable(128) %0, ptr noundef byval(%class.ReservedSpace) align 8 %1, i64 noundef %2, i64 noundef %3) #1 align 2 {
  %5 = alloca i64, align 8
  %6 = alloca i8, align 1
  %7 = alloca i64, align 8
  %8 = alloca ptr, align 8
  %9 = alloca i64, align 8
  %10 = alloca i64, align 8
  %11 = alloca %class.ReservedSpace, align 8
  store ptr %0, ptr %8, align 8
  store i64 %2, ptr %9, align 8
  store i64 %3, ptr %10, align 8
  %12 = load ptr, ptr %8, align 8
  store i64 56, ptr %7, align 8
  %13 = load i64, ptr %7, align 8
  store i64 %13, ptr %5, align 8
  store i8 5, ptr %6, align 1
  %14 = load i64, ptr %5, align 8
  %15 = load i8, ptr %6, align 1
  %16 = call noundef ptr @_Z12AllocateHeapm8MEMFLAGSN17AllocFailStrategy13AllocFailEnumE(i64 noundef %14, i8 noundef zeroext %15, i32 noundef 0) #7
  call void @llvm.memcpy.p0.p0.i64(ptr align 8 %11, ptr align 8 %1, i64 56, i1 false)
  %17 = load i64, ptr %10, align 8
  call void @_ZN14PSVirtualSpaceC1E13ReservedSpacem(ptr noundef nonnull align 8 dereferenceable(49) %16, ptr noundef byval(%class.ReservedSpace) align 8 %11, i64 noundef %17)
  %18 = getelementptr inbounds %class.PSOldGen, ptr %12, i32 0, i32 1
  store ptr %16, ptr %18, align 8
  %19 = getelementptr inbounds %class.PSOldGen, ptr %12, i32 0, i32 1
  %20 = load ptr, ptr %19, align 8
  %21 = load i64, ptr %9, align 8
  %22 = load ptr, ptr %20, align 8
  %23 = getelementptr inbounds ptr, ptr %22, i64 0
  %24 = load ptr, ptr %23, align 8
  %25 = call noundef zeroext i1 %24(ptr noundef nonnull align 8 dereferenceable(49) %20, i64 noundef %21)
  br i1 %25, label %27, label %26

26:                                               ; preds = %4
  call void @_Z29vm_exit_during_initializationPKcS0_(ptr noundef @.str, ptr noundef null)
  br label %27

27:                                               ; preds = %26, %4
  ret void
}

; Function Attrs: mustprogress nounwind uwtable
define hidden void @_ZN8PSOldGen10initializeE13ReservedSpacemmPKci(ptr noundef nonnull align 8 dereferenceable(128) %0, ptr noundef byval(%class.ReservedSpace) align 8 %1, i64 noundef %2, i64 noundef %3, ptr noundef %4, i32 noundef %5) #1 align 2 {
  %7 = alloca ptr, align 8
  %8 = alloca i64, align 8
  %9 = alloca i64, align 8
  %10 = alloca ptr, align 8
  %11 = alloca i32, align 4
  %12 = alloca %class.ReservedSpace, align 8
  store ptr %0, ptr %7, align 8
  store i64 %2, ptr %8, align 8
  store i64 %3, ptr %9, align 8
  store ptr %4, ptr %10, align 8
  store i32 %5, ptr %11, align 4
  %13 = load ptr, ptr %7, align 8
  call void @llvm.memcpy.p0.p0.i64(ptr align 8 %12, ptr align 8 %1, i64 56, i1 false)
  %14 = load i64, ptr %8, align 8
  %15 = load i64, ptr %9, align 8
  call void @_ZN8PSOldGen24initialize_virtual_spaceE13ReservedSpacemm(ptr noundef nonnull align 8 dereferenceable(128) %13, ptr noundef byval(%class.ReservedSpace) align 8 %12, i64 noundef %14, i64 noundef %15)
  %16 = load ptr, ptr %10, align 8
  %17 = load i32, ptr %11, align 4
  call void @_ZN8PSOldGen15initialize_workEPKci(ptr noundef nonnull align 8 dereferenceable(128) %13, ptr noundef %16, i32 noundef %17)
  %18 = load ptr, ptr %10, align 8
  %19 = load i32, ptr %11, align 4
  call void @_ZN8PSOldGen31initialize_performance_countersEPKci(ptr noundef nonnull align 8 dereferenceable(128) %13, ptr noundef %18, i32 noundef %19)
  ret void
}