; Function Attrs: mustprogress nounwind uwtable
define hidden void @_ZN8PSOldGen10initializeE13ReservedSpacemmPKci(ptr noundef nonnull align 8 dereferenceable(128) %0, ptr nocapture noundef readonly byval(%class.ReservedSpace) align 8 %1, i64 noundef %2, i64 noundef %3, ptr noundef %4, i32 noundef %5) local_unnamed_addr #0 align 2 {
  %7 = tail call noundef ptr @_Z12AllocateHeapm8MEMFLAGSN17AllocFailStrategy13AllocFailEnumE(i64 noundef 56, i8 noundef zeroext 5, i32 noundef 0) #7
  tail call void @_ZN14PSVirtualSpaceC1E13ReservedSpacem(ptr noundef nonnull align 8 dereferenceable(49) %7, ptr noundef nonnull byval(%class.ReservedSpace) align 8 %1, i64 noundef %3) #7
  %8 = getelementptr inbounds i8, ptr %0, i64 8
  store ptr %7, ptr %8, align 8
  %9 = load ptr, ptr %7, align 8
  %10 = load ptr, ptr %9, align 8
  %11 = tail call noundef zeroext i1 %10(ptr noundef nonnull align 8 dereferenceable(49) %7, i64 noundef %2) #7
  br i1 %11, label %_ZN8PSOldGen24initialize_virtual_spaceE13ReservedSpacemm.exit, label %12

12:                                               ; preds = %6
  tail call void @_Z29vm_exit_during_initializationPKcS0_(ptr noundef nonnull @.str, ptr noundef null) #7
  br label %_ZN8PSOldGen24initialize_virtual_spaceE13ReservedSpacemm.exit

_ZN8PSOldGen24initialize_virtual_spaceE13ReservedSpacemm.exit: ; preds = %6, %12
  tail call void @_ZN8PSOldGen15initialize_workEPKci(ptr noundef nonnull align 8 dereferenceable(128) %0, ptr poison, i32 poison)
  %13 = tail call noundef ptr @_Z12AllocateHeapm8MEMFLAGSN17AllocFailStrategy13AllocFailEnumE(i64 noundef 40, i8 noundef zeroext 5, i32 noundef 0) #7
  %14 = getelementptr inbounds i8, ptr %0, i64 112
  %15 = load i64, ptr %14, align 8
  %16 = getelementptr inbounds i8, ptr %0, i64 120
  %17 = load i64, ptr %16, align 8
  %18 = load ptr, ptr %8, align 8
  tail call void @_ZN20PSGenerationCountersC1EPKciimmP14PSVirtualSpace(ptr noundef nonnull align 8 dereferenceable(40) %13, ptr noundef %4, i32 noundef %5, i32 noundef 1, i64 noundef %15, i64 noundef %17, ptr noundef %18) #7
  %19 = getelementptr inbounds i8, ptr %0, i64 96
  store ptr %13, ptr %19, align 8
  %20 = tail call noundef ptr @_Z12AllocateHeapm8MEMFLAGSN17AllocFailStrategy13AllocFailEnumE(i64 noundef 40, i8 noundef zeroext 5, i32 noundef 0) #7
  %21 = load ptr, ptr %8, align 8
  %22 = getelementptr inbounds i8, ptr %21, i64 24
  %23 = load ptr, ptr %22, align 8
  %24 = getelementptr inbounds i8, ptr %21, i64 16
  %25 = load ptr, ptr %24, align 8
  %26 = ptrtoint ptr %23 to i64
  %27 = ptrtoint ptr %25 to i64
  %28 = sub i64 %26, %27
  %29 = getelementptr inbounds i8, ptr %0, i64 88
  %30 = load ptr, ptr %29, align 8
  %31 = load ptr, ptr %19, align 8
  tail call void @_ZN13SpaceCountersC1EPKcimP12MutableSpaceP18GenerationCounters(ptr noundef nonnull align 8 dereferenceable(40) %20, ptr noundef %4, i32 noundef 0, i64 noundef %28, ptr noundef %30, ptr noundef %31) #7
  %32 = getelementptr inbounds i8, ptr %0, i64 104
  store ptr %20, ptr %32, align 8
  ret void
}